-----BEGIN RSA PRIVATE KEY-----
Proc-Type: 4,ENCRYPTED
DEK-Info: AES-128-CBC,24017A585F91B54179C946C79EAAF295

hnaTYaqML7iM3oae8VSz8UVoga/UGDerO2F62es9WBae02NV9MQ/AGyoVkzIL8Pz
xwVEXjYew4YMX5ZRLGhPqpNUz6ICXBu2ruZf8Eaqo+2o821gG0/f6KFpCFXy0p2h
vFcuWKxHTIKwTBkOd+sAbvhCDabJ08dRFkNuQWk5s/t7IhzErRvzOGpcqjzWAjVk
MKFDJLwtlMrT4ubSjAEpSZNGSWO/PsYYBJ1aY/+maVURYX8phjO/g1os97j/HDUD
vmFjiVE6bIWcz6cxaNOf7y3kjfzwvn2HiXUtsrKY4vQjZpWcaaoKgjFJdzIwFWdr
XmPQp+NZn7jtChETFMlwus44hdafGxynvU1Y3dbruolL6wC2kh1B7kOcBvRcnLod
sfaazfI3x+02T95TXiLtd/28HiTO/Irt9S8S1YTdIrfT6S6D3fkqWSJ5wJ6bfS+E
c58MW52oxIgL7tTQhH0heLHzb4TkCYgnvl8llRgKxvZ/j2TrQ5bajfuI0T/TKhTW
6l5mq6N2SeJyTnHc0K+0Lnx6zT9NSZ1JS+vgL7gHZ+y/IY9Oy56JubCITM6wE00K
cIf3dDWTh9YpfIiGW+t+bPE3sokzkmKeUkWX4XclGbqbLgWfudXV/IIdS5+9I40I
kIVfHFaEK2+9VD4xxIwu/e9RbeXa7cekaCZnoO5+E3oAFtoNnb/jAF3LZg63RYOa
qdEMayFGaOa8BBYAlrIN1L1dIDeWSSkafkK0Fzf8Sb++0U0A+rTEGQgGnkBGbwkx
Sn4VsxY3rwlpWLlulixo4czr/M07xHkfEkkXcS5Wm2HdOEtiX35LjUxQdbfX22Pj
-----END RSA PRIVATE KEY-----
Certificate:
    Data:
        Version: 3 (0x2)
        Serial Number: 4096 (0x1000)
    Signature Algorithm: sha256WithRSAEncryption
        Issuer: C=US, ST=Texas, L=San Antonio, O=UTSA
        Validity
            Not Before: Nov 10 00:05:25 2020 GMT
            Not After : Nov 10 00:05:25 2021 GMT
        Subject: C=US, ST=Texas, O=UTSA, CN=SEEDPKILab2020.com
        Subject Public Key Info:
            Public Key Algorithm: rsaEncryption
                Public-Key: (1024 bit)
                Modulus:
                    00:c9:5a:a3:51:da:d4:44:2e:1d:86:1b:83:45:3d:
                    d5:51:92:30:84:d2:4c:50:bb:f1:1c:be:96:7c:ce:
                    c7:39:37:ff:1b:94:2e:0e:f3:90:29:43:69:70:81:
                    24:89:ef:d7:3c:db:a2:ec:bd:d9:4d:e5:5f:57:28:
                    b5:a5:86:b9:2f:e5:28:5d:a0:3c:ed:5b:61:bb:83:
                    14:b8:b8:90:bb:b0:59:65:b2:a6:10:87:15:a9:80:
                    4d:aa:d0:aa:ae:25:e0:68:44:44:78:b6:9d:98:7a:
                    bc:8e:1a:c8:3c:0d:07:e2:51:90:dd:f4:a6:69:98:
                    b6:d8:31:b8:3a:1e:0f:b8:a9
                Exponent: 65537 (0x10001)
        X509v3 extensions:
            X509v3 Basic Constraints: 
                CA:FALSE
            Netscape Comment: 
                OpenSSL Generated Certificate
            X509v3 Subject Key Identifier: 
                E6:9E:BF:6B:93:95:92:C4:7A:EC:7E:95:45:89:26:75:B8:62:D8:15
            X509v3 Authority Key Identifier: 
                keyid:71:D0:6D:85:C3:69:B3:C7:C1:D5:B0:01:DD:0D:AC:DA:1F:6C:E1:05

    Signature Algorithm: sha256WithRSAEncryption
         98:89:df:a0:c0:4e:61:6a:36:eb:2f:bc:7b:0e:08:22:15:b7:
         4a:29:09:67:00:d4:74:72:69:12:8e:50:5a:bf:5f:38:31:38:
         ea:1a:cf:f8:e7:66:a2:da:7c:c1:27:64:09:69:ff:4a:78:66:
         86:82:05:22:75:ca:ec:bb:c6:27:7a:0c:c7:ef:29:fa:5f:da:
         20:aa:b3:80:43:e5:e0:3a:98:44:40:4b:b6:b4:f6:cc:05:ac:
         ba:bc:72:3a:d2:48:2c:b8:3a:db:3e:d6:ed:43:0b:ee:56:1a:
         b9:4e:7e:93:97:8c:a7:a5:8d:47:fd:0a:8b:9f:70:7e:80:7d:
         7c:30:3c:81:48:cb:73:97:3f:aa:b6:55:06:a0:b1:df:9b:78:
         7e:51:6e:21:84:61:32:60:aa:34:78:46:09:5b:4e:09:cf:7e:
         e0:e5:5a:20:91:7f:18:6f:f9:3d:5a:d9:89:80:65:32:f8:1c:
         61:72:de:06:03:03:f6:4c:c9:5a:f0:13:43:c1:2e:b2:b5:5a:
         d8:39:24:46:e8:6e:3e:4b:4b:0c:00:20:c4:cc:6b:f9:44:27:
         34:33:60:bc:8f:7d:f6:25:db:58:b2:60:fa:d4:90:86:fb:9a:
         0a:8f:02:6b:49:f0:c6:e1:95:24:a1:a9:08:fc:f3:06:c4:c3:
         12:30:3d:8c
-----BEGIN CERTIFICATE-----
MIIC/jCCAeagAwIBAgICEAAwDQYJKoZIhvcNAQELBQAwQjELMAkGA1UEBhMCVVMx
DjAMBgNVBAgMBVRleGFzMRQwEgYDVQQHDAtTYW4gQW50b25pbzENMAsGA1UECgwE
VVRTQTAeFw0yMDExMTAwMDA1MjVaFw0yMTExMTAwMDA1MjVaMEkxCzAJBgNVBAYT
AlVTMQ4wDAYDVQQIDAVUZXhhczENMAsGA1UECgwEVVRTQTEbMBkGA1UEAwwSU0VF
RFBLSUxhYjIwMjAuY29tMIGfMA0GCSqGSIb3DQEBAQUAA4GNADCBiQKBgQDJWqNR
2tRELh2GG4NFPdVRkjCE0kxQu/EcvpZ8zsc5N/8blC4O85ApQ2lwgSSJ79c826Ls
vdlN5V9XKLWlhrkv5ShdoDztW2G7gxS4uJC7sFllsqYQhxWpgE2q0KquJeBoRER4
tp2YeryOGsg8DQfiUZDd9KZpmLbYMbg6Hg+4qQIDAQABo3sweTAJBgNVHRMEAjAA
MCwGCWCGSAGG+EIBDQQfFh1PcGVuU1NMIEdlbmVyYXRlZCBDZXJ0aWZpY2F0ZTAd
BgNVHQ4EFgQU5p6/a5OVksR67H6VRYkmdbhi2BUwHwYDVR0jBBgwFoAUcdBthcNp
s8fB1bAB3Q2s2h9s4QUwDQYJKoZIhvcNAQELBQADggEBAJiJ36DATmFqNusvvHsO
CCIVt0opCWcA1HRyaRKOUFq/XzgxOOoaz/jnZqLafMEnZAlp/0p4ZoaCBSJ1yuy7
xid6DMfvKfpf2iCqs4BD5eA6mERAS7a09swFrLq8cjrSSCy4Ots+1u1DC+5WGrlO
fpOXjKeljUf9CoufcH6AfXwwPIFIy3OXP6q2VQagsd+beH5RbiGEYTJgqjR4Rglb
TgnPfuDlWiCRfxhv+T1a2YmAZTL4HGFy3gYDA/ZMyVrwE0PBLrK1Wtg5JEbobj5L
SwwAIMTMa/lEJzQzYLyPffYl21iyYPrUkIb7mgqPAmtJ8MbhlSShqQj88wbEwxIw
PYw=
-----END CERTIFICATE-----
